(lp0
(lp1
I1
aI21
aI41
aI43
aI51
aI54
aI92
aI98
aI99
aI129
aI133
aI139
aI141
aI143
aI148
aI150
aI153
aI154
aI165
aI188
aI204
aI210
aI211
aI231
aI256
aI263
aI275
aI277
aI281
aI289
aI299
aI307
aI316
aI317
aI328
aI352
aI375
aI393
aI406
aI407
aI421
aI451
aI453
aI474
aI496
aI497
aI532
aI537
aI566
aI583
aI584
aI585
aI589
aI595
aI651
aI668
aI671
aI678
aI682
aI684
aI686
aI693
aI719
aI735
aI739
aI808
aI819
aI837
aI838
aI859
aI890
aI957
aI997
aI1014
aI1024
aI1040
aI1044
aI1053
aI1057
aI1062
aI1063
aI1068
aI1103
aI1133
aI1150
aI1159
aI1181
aI1211
aI1223
aI1226
aI1227
aI1230
aI1240
aI1256
aI1304
aI1337
aI1343
aI1351
aI1352
aI1440
aI1452
aI1454
aI1456
aI1487
aI1493
aI1496
aI1520
aI1533
aI1538
aI1560
aI1615
aI1629
aI1656
aI1670
aI1679
aI1709
aI1711
aI1720
aI1726
aI1731
aI1742
aI1743
aI1752
aI1756
aI1817
aI1846
aI1869
aI1889
aI1911
aI1935
aI1938
aI1947
aI1949
aI1950
aI2002
aI2016
aI2041
aI12
aI20
aI93
aI119
aI174
aI176
aI197
aI200
aI224
aI246
aI248
aI254
aI270
aI282
aI315
aI367
aI384
aI385
aI386
aI387
aI402
aI403
aI428
aI431
aI432
aI433
aI434
aI452
aI456
aI457
aI458
aI459
aI480
aI482
aI501
aI506
aI507
aI508
aI522
aI527
aI534
aI557
aI559
aI560
aI586
aI605
aI606
aI610
aI674
aI681
aI689
aI713
aI716
aI937
aI942
aI944
aI989
aI1034
aI1038
aI1039
aI1047
aI1071
aI1073
aI1102
aI1119
aI1149
aI1195
aI1196
aI1284
aI1292
aI1338
aI1340
aI1371
aI1407
aI1414
aI1423
aI1444
aI1451
aI1475
aI1484
aI1494
aI1556
aI1628
aI1631
aI1639
aI1641
aI1643
aI1648
aI1650
aI1721
aI1722
aI1728
aI1760
aI1779
aI1981
aI1993
aI2024
aI2025
aI2027
aI2036
aI127
aI322
aI373
aI422
aI958
aI978
aI1015
aI1028
aI1093
aI1094
aI1095
aI1107
aI1111
aI1137
aI1139
aI1141
aI1147
aI1148
aI1154
aI1155
aI1186
aI1238
aI1239
aI1241
aI1250
aI1251
aI1276
aI1279
aI1308
aI1309
aI1332
aI1341
aI1358
aI1378
aI1439
aI1479
aI1480
aI1481
aI1482
aI1518
aI1603
aI1608
aI1669
aI1691
aI1701
aI1702
aI1703
aI1750
aI1751
aI1759
aI1793
aI1794
aI1797
aI1804
aI1825
aI1826
aI1829
aI1831
aI1832
aI1833
aI1835
aI1837
aI1838
aI1848
aI1858
aI1898
aI1899
aI1900
aI1937
aI1960
aI1961
aI1962
aI2003
aI2007
aI2014
aI2023
aI108
aI215
aI455
aI550
aI577
aI633
aI669
aI707
aI708
aI1051
aI1084
aI1178
aI1249
aI1260
aI1327
aI1339
aI1382
aI1406
aI1476
aI1489
aI1775
aI1802
aI1813
aI1824
aI1847
aI1954
aI45
aI55
aI167
aI186
aI187
aI241
aI444
aI484
aI485
aI524
aI630
aI687
aI688
aI699
aI1131
aI1228
aI1666
aI1672
aI1681
aI1761
aI1791
aI1866
aI1870
aI1896
aI1967
aI2018
aI106
aI156
aI261
aI324
aI327
aI376
aI400
aI413
aI1112
aI1233
aI1234
aI1285
aI1286
aI1287
aI1288
aI1342
aI1513
aI1611
aI1612
aI1671
aI1676
aI1853
aI1854
aI1855
aI14
aI472
aI580
aI710
aI854
aI951
aI972
aI1054
aI1162
aI1281
aI1377
aI1613
aI1700
aI1704
aI1710
aI1715
aI1732
aI1748
aI1864
aI1894
aI1924
aI30
aI194
aI447
aI450
aI481
aI498
aI994
aI1012
aI1055
aI1354
aI1499
aI1584
aI1706
aI1717
aI1916
aI1997
aI2028
aI2029
aI490
aI492
aI509
aI510
aI512
aI513
aI514
aI515
aI516
aI517
aI518
aI539
aI540
aI541
aI542
aI596
aI601
aI25
aI48
aI58
aI115
aI276
aI326
aI358
aI561
aI562
aI612
aI613
aI643
aI1404
aI1405
aI1571
aI1863
aI953
aI975
aI1140
aI1232
aI1236
aI1237
aI1310
aI1622
aI1632
aI1713
aI1828
aI1830
aI1965
aI2013
aI2015
aI37
aI136
aI219
aI242
aI445
aI519
aI582
aI632
aI1046
aI1061
aI1244
aI1450
aI1592
aI1593
aI2019
aI104
aI105
aI128
aI351
aI730
aI797
aI857
aI880
aI881
aI889
aI915
aI918
aI126
aI151
aI206
aI349
aI401
aI697
aI724
aI798
aI802
aI852
aI873
aI272
aI692
aI729
aI734
aI738
aI804
aI831
aI842
aI895
aI928
aI60
aI70
aI120
aI366
aI611
aI648
aI1080
aI1081
aI1128
aI1488
aI973
aI983
aI1190
aI1557
aI1559
aI1647
aI1969
aI1977
aI1994
aI440
aI441
aI460
aI461
aI462
aI463
aI464
aI465
aI466
aI245
aI430
aI549
aI576
aI653
aI1299
aI1734
aI1890
aI1959
aI240
aI409
aI636
aI702
aI945
aI1098
aI1278
aI1682
aI1712
aI205
aI696
aI725
aI742
aI803
aI817
aI840
aI847
aI855
aI744
aI745
aI746
aI747
aI758
aI774
aI777
aI790
aI418
aI499
aI505
aI535
aI1136
aI1158
aI1191
aI1501
aI137
aI558
aI971
aI1314
aI1462
aI1535
aI1674
aI1857
aI110
aI111
aI650
aI705
aI1362
aI1392
aI1539
aI1856
aI1245
aI1361
aI1465
aI1468
aI1943
aI1944
aI1955
aI554
aI569
aI647
aI703
aI1416
aI1786
aI1923
aI546
aI667
aI711
aI1170
aI1415
aI1783
aI1795
aI273
aI929
aI970
aI1001
aI1330
aI1799
aI1806
aI238
aI679
aI954
aI1043
aI1640
aI1642
aI1940
aI77
aI87
aI336
aI338
aI616
aI618
aI1693
aI68
aI755
aI756
aI759
aI762
aI773
aI784
aI10
aI67
aI94
aI265
aI309
aI389
aI390
aI374
aI1074
aI1090
aI1091
aI1729
aI1887
aI312
aI383
aI404
aI701
aI1749
aI1904
aI168
aI495
aI1431
aI1502
aI1636
aI1816
aI134
aI1049
aI1201
aI1350
aI1583
aI1774
aI71
aI91
aI117
aI381
aI563
aI614
aI62
aI588
aI620
aI621
aI622
aI623
aI1248
aI1280
aI1367
aI1757
aI1930
aI732
aI743
aI832
aI877
aI926
aI578
aI579
aI1290
aI1357
aI1780
aI260
aI262
aI306
aI372
aI424
aI221
aI551
aI631
aI1099
aI1108
aI140
aI1152
aI1210
aI1811
aI1885
aI84
aI449
aI709
aI984
aI1117
aI72
aI82
aI530
aI531
aI1529
aI39
aI42
aI52
aI57
aI564
aI35
aI1176
aI1253
aI1902
aI1968
aI17
aI125
aI258
aI999
aI1689
aI1243
aI1408
aI1987
aI2010
aI1200
aI1429
aI1470
aI1477
aI1041
aI1218
aI1457
aI1897
aI982
aI1126
aI1432
aI1719
aI965
aI1157
aI1936
aI2020
aI962
aI1275
aI1524
aI1840
aI795
aI796
aI849
aI865
aI750
aI761
aI764
aI765
aI673
aI1820
aI1888
aI2022
aI536
aI1355
aI1590
aI2001
aI489
aI547
aI571
aI572
aI438
aI652
aI1202
aI1727
aI269
aI538
aI607
aI1667
aI220
aI533
aI683
aI1934
aI212
aI737
aI794
aI826
aI163
aI941
aI1269
aI1374
aI147
aI843
aI883
aI894
aI81
aI286
aI290
aI1604
aI75
aI785
aI786
aI787
aI73
aI83
aI335
aI339
aI34
aI1321
aI1723
aI1925
aI11
aI234
aI247
aI443
aI4
aI145
aI235
aI805
aI3
aI90
aI656
aI658
aI0
aI377
aI1393
aI1395
aI1812
aI1884
aI1893
aI1673
aI1906
aI1933
aI1426
aI1455
aI1948
aI1417
aI1883
aI2000
aI1379
aI1753
aI1798
aI1359
aI1505
aI1755
aI1274
aI1614
aI1920
aI1194
aI1718
aI1941
aI1138
aI1206
aI1522
aI1097
aI1198
aI1623
aI1045
aI1781
aI1996
aI1022
aI1123
aI1861
aI950
aI964
aI1204
aI946
aI1019
aI1534
aI924
aI939
aI1050
aI898
aI900
aI902
aI836
aI910
aI911
aI822
aI932
aI1219
aI820
aI871
aI872
aI809
aI875
aI930
aI727
aI835
aI884
aI723
aI733
aI853
aI608
aI672
aI685
aI581
aI1263
aI1459
aI555
aI1036
aI1271
aI528
aI698
aI2017
aI520
aI609
aI1621
aI439
aI628
aI834
aI414
aI416
aI436
aI354
aI486
aI603
aI249
aI1411
aI2033
aI228
aI388
aI2038
aI213
aI232
aI303
aI208
aI323
aI1369
aI193
aI575
aI1730
aI114
aI1619
aI1892
aI113
aI1222
aI1594
aI97
aI268
aI359
aI80
aI266
aI565
aI65
aI1697
aI1871
aI53
aI61
aI933
aI49
aI504
aI617
aI47
aI767
aI768
aI44
aI1511
aI1770
aI26
aI1536
aI1675
aI9
aI295
aI988
aI2
aI31
aI411
aI1772
aI1905
aI1664
aI1767
aI1646
aI1845
aI1630
aI1803
aI1624
aI1651
aI1616
aI1886
aI1597
aI2005
aI1580
aI1653
aI1578
aI2031
aI1566
aI1745
aI1562
aI1563
aI1547
aI1841
aI1483
aI1836
aI1427
aI1867
aI1412
aI1790
aI1373
aI1690
aI1366
aI1545
aI1356
aI1588
aI1347
aI1891
aI1333
aI1683
aI1320
aI1686
aI1319
aI1344
aI1311
aI2030
aI1305
aI1368
aI1264
aI1265
aI1257
aI1784
aI1255
aI1705
aI1235
aI1927
aI1229
aI1773
aI1216
aI1490
aI1197
aI1971
aI1184
aI1875
aI1161
aI1492
aI1134
aI1544
aI1127
aI1283
aI1121
aI1822
aI1105
aI1901
aI1092
aI1724
aI1078
aI1259
aI1072
aI1789
aI1060
aI1345
aI1042
aI1814
aI1025
aI1926
aI1016
aI2009
aI985
aI1491
aI981
aI1698
aI979
aI998
aI966
aI1082
aI960
aI961
aI952
aI1644
aI948
aI1069
aI940
aI1246
aI869
aI913
aI864
aI892
aI848
aI908
aI846
aI856
aI844
aI863
aI789
aI791
aI754
aI780
aI748
aI752
aI731
aI868
aI718
aI721
aI690
aI1946
aI666
aI1104
aI649
aI1852
aI645
aI823
aI639
aI640
aI635
aI1680
aI602
aI1737
aI597
aI599
aI593
aI993
aI570
aI1110
aI567
aI1326
aI525
aI1498
aI502
aI1778
aI491
aI511
aI487
aI544
aI478
aI1122
aI475
aI1617
aI470
aI1372
aI448
aI1346
aI446
aI947
aI442
aI1363
aI437
aI591
aI435
aI619
aI429
aI963
aI405
aI468
aI368
aI1929
aI345
aI694
aI343
aI923
aI341
aI1555
aI340
aI641
aI319
aI806
aI308
aI361
aI302
aI1349
aI294
aI304
aI293
aI1376
aI287
aI1528
aI284
aI285
aI283
aI858
aI280
aI329
aI264
aI1302
aI255
aI1000
aI222
aI1907
aI216
aI1585
aI214
aI1645
aI203
aI1163
aI191
aI1992
aI189
aI1746
aI183
aI184
aI180
aI325
aI177
aI839
aI173
aI1633
aI162
aI1842
aI161
aI1497
aI159
aI552
aI157
aI1113
aI142
aI1188
aI135
aI1834
aI131
aI779
aI96
aI337
aI95
aI792
aI89
aI251
aI86
aI659
aI79
aI680
aI78
aI88
aI76
aI661
aI69
aI587
aI66
aI660
aI59
aI1570
aI50
aI298
aI33
aI529
aI32
aI657
aI28
aI334
aI23
aI1323
aI22
aI662
aI16
aI548
aI15
aI1707
aI13
aI314
aI8
aI1591
aI2040
aI2039
aI2037
aI2035
aI2034
aI2032
aI2026
aI2021
aI2012
aI2011
aI2008
aI2006
aI2004
aI1999
aI1998
aI1995
aI1991
aI1990
aI1989
aI1988
aI1986
aI1985
aI1984
aI1983
aI1982
aI1980
aI1979
aI1978
aI1976
aI1975
aI1974
aI1973
aI1972
aI1970
aI1966
aI1964
aI1963
aI1958
aI1957
aI1956
aI1953
aI1952
aI1951
aI1945
aI1942
aI1939
aI1932
aI1931
aI1928
aI1922
aI1921
aI1919
aI1918
aI1917
aI1915
aI1914
aI1913
aI1912
aI1910
aI1909
aI1908
aI1903
aI1895
aI1882
aI1881
aI1880
aI1879
aI1878
aI1877
aI1876
aI1874
aI1873
aI1872
aI1868
aI1865
aI1862
aI1860
aI1859
aI1851
aI1850
aI1849
aI1844
aI1843
aI1839
aI1827
aI1823
aI1821
aI1819
aI1818
aI1815
aI1810
aI1809
aI1808
aI1807
aI1805
aI1801
aI1800
aI1796
aI1792
aI1788
aI1787
aI1785
aI1782
aI1777
aI1776
aI1771
aI1769
aI1768
aI1766
aI1765
aI1764
aI1763
aI1762
aI1758
aI1754
aI1747
aI1744
aI1741
aI1740
aI1739
aI1738
aI1736
aI1735
aI1733
aI1725
aI1716
aI1714
aI1708
aI1699
aI1696
aI1695
aI1694
aI1692
aI1688
aI1687
aI1685
aI1684
aI1678
aI1677
aI1668
aI1665
aI1663
aI1662
aI1661
aI1660
aI1659
aI1658
aI1657
aI1655
aI1654
aI1652
aI1649
aI1638
aI1637
aI1635
aI1634
aI1627
aI1626
aI1625
aI1620
aI1618
aI1610
aI1609
aI1607
aI1606
aI1605
aI1602
aI1601
aI1600
aI1599
aI1598
aI1596
aI1595
aI1589
aI1587
aI1586
aI1582
aI1581
aI1579
aI1577
aI1576
aI1575
aI1574
aI1573
aI1572
aI1569
aI1568
aI1567
aI1565
aI1564
aI1561
aI1558
aI1554
aI1553
aI1552
aI1551
aI1550
aI1549
aI1548
aI1546
aI1543
aI1542
aI1541
aI1540
aI1537
aI1532
aI1531
aI1530
aI1527
aI1526
aI1525
aI1523
aI1521
aI1519
aI1517
aI1516
aI1515
aI1514
aI1512
aI1510
aI1509
aI1508
aI1507
aI1506
aI1504
aI1503
aI1500
aI1495
aI1486
aI1485
aI1478
aI1474
aI1473
aI1472
aI1471
aI1469
aI1467
aI1466
aI1464
aI1463
aI1461
aI1460
aI1458
aI1453
aI1449
aI1448
aI1447
aI1446
aI1445
aI1443
aI1442
aI1441
aI1438
aI1437
aI1436
aI1435
aI1434
aI1433
aI1430
aI1428
aI1425
aI1424
aI1422
aI1421
aI1420
aI1419
aI1418
aI1413
aI1410
aI1409
aI1403
aI1402
aI1401
aI1400
aI1399
aI1398
aI1397
aI1396
aI1394
aI1391
aI1390
aI1389
aI1388
aI1387
aI1386
aI1385
aI1384
aI1383
aI1381
aI1380
aI1375
aI1370
aI1365
aI1364
aI1360
aI1353
aI1348
aI1336
aI1335
aI1334
aI1331
aI1329
aI1328
aI1325
aI1324
aI1322
aI1318
aI1317
aI1316
aI1315
aI1313
aI1312
aI1307
aI1306
aI1303
aI1301
aI1300
aI1298
aI1297
aI1296
aI1295
aI1294
aI1293
aI1291
aI1289
aI1282
aI1277
aI1273
aI1272
aI1270
aI1268
aI1267
aI1266
aI1262
aI1261
aI1258
aI1254
aI1252
aI1247
aI1242
aI1231
aI1225
aI1224
aI1221
aI1220
aI1217
aI1215
aI1214
aI1213
aI1212
aI1209
aI1208
aI1207
aI1205
aa(lp2
I1203
aI1199
aI1193
aI1192
aI1189
aI1187
aI1185
aI1183
aI1182
aI1180
aI1179
aI1177
aI1175
aI1174
aI1173
aI1172
aI1171
aI1169
aI1168
aI1167
aI1166
aI1165
aI1164
aI1160
aI1156
aI1153
aI1151
aI1146
aI1145
aI1144
aI1143
aI1142
aI1135
aI1132
aI1130
aI1129
aI1125
aI1124
aI1120
aI1118
aI1116
aI1115
aI1114
aI1109
aI1106
aI1101
aI1100
aI1096
aI1089
aI1088
aI1087
aI1086
aI1085
aI1083
aI1079
aI1077
aI1076
aI1075
aI1070
aI1067
aI1066
aI1065
aI1064
aI1059
aI1058
aI1056
aI1052
aI1048
aI1037
aI1035
aI1033
aI1032
aI1031
aI1030
aI1029
aI1027
aI1026
aI1023
aI1021
aI1020
aI1018
aI1017
aI1013
aI1011
aI1010
aI1009
aI1008
aI1007
aI1006
aI1005
aI1004
aI1003
aI1002
aI996
aI995
aI992
aI991
aI990
aI987
aI986
aI980
aI977
aI976
aI974
aI969
aI968
aI967
aI959
aI956
aI955
aI949
aI943
aI938
aI936
aI935
aI934
aI931
aI927
aI925
aI922
aI921
aI920
aI919
aI917
aI916
aI914
aI912
aI909
aI907
aI906
aI905
aI904
aI903
aI901
aI899
aI897
aI896
aI893
aI891
aI888
aI887
aI886
aI885
aI882
aI879
aI878
aI876
aI874
aI870
aI867
aI866
aI862
aI861
aI860
aI851
aI850
aI845
aI841
aI833
aI830
aI829
aI828
aI827
aI825
aI824
aI821
aI818
aI816
aI815
aI814
aI813
aI812
aI811
aI810
aI807
aI801
aI800
aI799
aI793
aI788
aI783
aI782
aI781
aI778
aI776
aI775
aI772
aI771
aI770
aI769
aI766
aI763
aI760
aI757
aI753
aI751
aI749
aI741
aI740
aI736
aI728
aI726
aI722
aI720
aa(lp3
I717
aI715
aI714
aI712
aI706
aI704
aI700
aI695
aI691
aI677
aI676
aI675
aI670
aI665
aI664
aI663
aI655
aI654
aI646
aI644
aI642
aI638
aI637
aI634
aI629
aI627
aI626
aI625
aI624
aI615
aI604
aI600
aI598
aI594
aI592
aI590
aI574
aI573
aI568
aI556
aI553
aI545
aI543
aI526
aI523
aI521
aI503
aI500
aI494
aI493
aI488
aI483
aI479
aI477
aI476
aI473
aI471
aI469
aI467
aI454
aI427
aI426
aI425
aI423
aI420
aI419
aI417
aI415
aI412
aI410
aI408
aI399
aI398
aI397
aI396
aI395
aI394
aI392
aI391
aI382
aI380
aI379
aI378
aI371
aI370
aI369
aI365
aI364
aI363
aI362
aI360
aI357
aI356
aI355
aI353
aI350
aI348
aI347
aI346
aI344
aI342
aI333
aI332
aI331
aI330
aI321
aI320
aI318
aI313
aI311
aI310
aI305
aI301
aI300
aI297
aI296
aI292
aI291
aI288
aI279
aI278
aI274
aI271
aI267
aI259
aI257
aI253
aI252
aI250
aI244
aI243
aI239
aI237
aI236
aI233
aI230
aI229
aI227
aI226
aI225
aI223
aI218
aI217
aI209
aI207
aI202
aI201
aI199
aI198
aI196
aI195
aI192
aI190
aI185
aI182
aI181
aI179
aI178
aI175
aI172
aI171
aI170
aI169
aI166
aI164
aI160
aI158
aI155
aI152
aI149
aI146
aI144
aI138
aI132
aI130
aI124
aI123
aI122
aI121
aI118
aI116
aI112
aI109
aI107
aI103
aI102
aI101
aI100
aI85
aI74
aI64
aI63
aI56
aI46
aI40
aI38
aI36
aI29
aI27
aI24
aI19
aI18
aI7
aI6
aI5
aa.